; Function Attrs: nounwind uwtable
define hidden void @_PyStaticType_ClearWeakRefs(ptr noundef %0, ptr noundef %1) local_unnamed_addr #0 {
  %3 = tail call ptr @_PyStaticType_GetState(ptr noundef %0, ptr noundef %1) #6
  %4 = getelementptr inbounds nuw i8, ptr %3, i64 40
  %5 = load ptr, ptr %4, align 8, !tbaa !45
  %.not5 = icmp eq ptr %5, null
  br i1 %.not5, label %._crit_edge, label %.lr.ph

.lr.ph:                                           ; preds = %2
  %6 = tail call align 8 ptr @llvm.threadlocal.address.p0(ptr align 8 @_Py_tss_tstate)
  br label %7

7:                                                ; preds = %.lr.ph, %_PyWeakref_ClearRef.exit
  %8 = phi ptr [ %5, %.lr.ph ], [ %41, %_PyWeakref_ClearRef.exit ]
  %9 = getelementptr inbounds nuw i8, ptr %8, i64 16
  %10 = load ptr, ptr %9, align 8, !tbaa !37
  %.not.i.i = icmp eq ptr %10, @_Py_NoneStruct
  br i1 %.not.i.i, label %_PyWeakref_ClearRef.exit, label %11

11:                                               ; preds = %7
  %12 = getelementptr i8, ptr %10, i64 8
  %.val9.i.i.i = load ptr, ptr %12, align 8, !tbaa !4
  %13 = getelementptr i8, ptr %.val9.i.i.i, i64 168
  %.val9.val.i.i.i = load i64, ptr %13, align 8, !tbaa !21
  %14 = and i64 %.val9.val.i.i.i, 2147483648
  %.not10.i.i.i = icmp eq i64 %14, 0
  br i1 %.not10.i.i.i, label %25, label %15

15:                                               ; preds = %11
  %16 = getelementptr inbounds nuw i8, ptr %10, i64 168
  %17 = load i64, ptr %16, align 8, !tbaa !21
  %18 = and i64 %17, 2
  %.not8.i.i.i = icmp eq i64 %18, 0
  br i1 %.not8.i.i.i, label %25, label %19

19:                                               ; preds = %15
  %20 = load ptr, ptr %6, align 8, !tbaa !22
  %21 = getelementptr inbounds nuw i8, ptr %20, i64 16
  %22 = load ptr, ptr %21, align 8, !tbaa !24
  %23 = tail call ptr @_PyStaticType_GetState(ptr noundef %22, ptr noundef nonnull %10) #6
  %24 = getelementptr inbounds nuw i8, ptr %23, i64 40
  br label %_PyObject_GET_WEAKREFS_LISTPTR.exit.i.i

25:                                               ; preds = %15, %11
  %26 = getelementptr inbounds nuw i8, ptr %.val9.i.i.i, i64 208
  %27 = load i64, ptr %26, align 8, !tbaa !10
  %28 = getelementptr i8, ptr %10, i64 %27
  br label %_PyObject_GET_WEAKREFS_LISTPTR.exit.i.i

_PyObject_GET_WEAKREFS_LISTPTR.exit.i.i:          ; preds = %25, %19
  %.0.i.i.i = phi ptr [ %24, %19 ], [ %28, %25 ]
  %29 = load ptr, ptr %.0.i.i.i, align 8, !tbaa !33
  %30 = icmp eq ptr %29, %8
  %31 = getelementptr inbounds nuw i8, ptr %8, i64 48
  %32 = load ptr, ptr %31, align 8, !tbaa !39
  br i1 %30, label %33, label %_PyObject_GET_WEAKREFS_LISTPTR.exit.i._crit_edge.i

33:                                               ; preds = %_PyObject_GET_WEAKREFS_LISTPTR.exit.i.i
  store ptr %32, ptr %.0.i.i.i, align 8, !tbaa !33
  br label %_PyObject_GET_WEAKREFS_LISTPTR.exit.i._crit_edge.i

_PyObject_GET_WEAKREFS_LISTPTR.exit.i._crit_edge.i: ; preds = %33, %_PyObject_GET_WEAKREFS_LISTPTR.exit.i.i
  store ptr @_Py_NoneStruct, ptr %9, align 8, !tbaa !37
  %34 = getelementptr inbounds nuw i8, ptr %8, i64 40
  %35 = load ptr, ptr %34, align 8, !tbaa !40
  %.not23.i.i = icmp eq ptr %35, null
  br i1 %.not23.i.i, label %._crit_edge.i.i, label %36

36:                                               ; preds = %_PyObject_GET_WEAKREFS_LISTPTR.exit.i._crit_edge.i
  %37 = getelementptr inbounds nuw i8, ptr %35, i64 48
  store ptr %32, ptr %37, align 8, !tbaa !39
  br label %._crit_edge.i.i

._crit_edge.i.i:                                  ; preds = %36, %_PyObject_GET_WEAKREFS_LISTPTR.exit.i._crit_edge.i
  %.not24.i.i = icmp eq ptr %32, null
  br i1 %.not24.i.i, label %40, label %38

38:                                               ; preds = %._crit_edge.i.i
  %39 = getelementptr inbounds nuw i8, ptr %32, i64 40
  store ptr %35, ptr %39, align 8, !tbaa !40
  br label %40

40:                                               ; preds = %38, %._crit_edge.i.i
  tail call void @llvm.memset.p0.i64(ptr noundef nonnull align 8 dereferenceable(16) %34, i8 0, i64 16, i1 false)
  %.pre = load ptr, ptr %4, align 8, !tbaa !45
  br label %_PyWeakref_ClearRef.exit

_PyWeakref_ClearRef.exit:                         ; preds = %7, %40
  %41 = phi ptr [ %8, %7 ], [ %.pre, %40 ]
  %.not = icmp eq ptr %41, null
  br i1 %.not, label %._crit_edge, label %7, !llvm.loop !53

._crit_edge:                                      ; preds = %_PyWeakref_ClearRef.exit, %2
  ret void
}